; Function Attrs: mustprogress nounwind uwtable
define internal void @_ZN12_GLOBAL__N_118PruneBlocksHandlerD2Ev(ptr noundef nonnull align 8 dereferenceable(88) initializes((0, 8)) %0) unnamed_addr #0 align 2 {
  store ptr getelementptr inbounds nuw inrange(-16, 40) (i8, ptr @_ZTVN12_GLOBAL__N_118PruneBlocksHandlerE, i64 16), ptr %0, align 8
  %2 = getelementptr inbounds nuw i8, ptr %0, i64 8
  %3 = tail call noundef i64 @_ZNK4llvm15SmallVectorBaseIjE4sizeEv(ptr noundef nonnull align 8 dereferenceable(68) %2) #15
  %4 = load ptr, ptr %2, align 8
  %5 = getelementptr inbounds nuw i8, ptr %0, i64 24
  %6 = icmp eq ptr %4, %5
  br i1 %6, label %_ZN4llvm9BitVectorD2Ev.exit, label %7

7:                                                ; preds = %1
  tail call void @free(ptr noundef %4) #15
  br label %_ZN4llvm9BitVectorD2Ev.exit

_ZN4llvm9BitVectorD2Ev.exit:                      ; preds = %1, %7
  ret void
}